target datalayout = "e-m:e-p270:32:32-p271:32:32-p272:64:64-i64:64-i128:128-f80:128-n8:16:32:64-S128"
target triple = "x86_64-pc-linux-gnu"

@.str.1 = private unnamed_addr constant [2 x i8] c"\0A\00", align 1
@.str.18 = private unnamed_addr constant [2 x i8] c":\00", align 1
@.str.23 = private unnamed_addr constant [16 x i8] c"groups to print\00", align 1
@.str.24 = private unnamed_addr constant [19 x i8] c"Supported groups: \00", align 1
@.str.25 = private unnamed_addr constant [3 x i8] c"%s\00", align 1
@.str.26 = private unnamed_addr constant [27 x i8] c"../openssl/apps/lib/s_cb.c\00", align 1
@.str.27 = private unnamed_addr constant [17 x i8] c"\0AShared groups: \00", align 1
@.str.28 = private unnamed_addr constant [5 x i8] c"NONE\00", align 1

; Function Attrs: nounwind uwtable
define i32 @ssl_print_groups(ptr noundef %0, ptr noundef %1, i32 noundef %2) #0 {
  %4 = alloca i32, align 4
  %5 = alloca ptr, align 8
  %6 = alloca ptr, align 8
  %7 = alloca i32, align 4
  %8 = alloca i32, align 4
  %9 = alloca i32, align 4
  %10 = alloca ptr, align 8
  %11 = alloca i32, align 4
  %12 = alloca i32, align 4
  store ptr %0, ptr %5, align 8, !tbaa !14
  store ptr %1, ptr %6, align 8, !tbaa !27
  store i32 %2, ptr %7, align 4, !tbaa !3
  call void @llvm.lifetime.start.p0(i64 4, ptr %8) #10
  call void @llvm.lifetime.start.p0(i64 4, ptr %9) #10
  call void @llvm.lifetime.start.p0(i64 8, ptr %10) #10
  call void @llvm.lifetime.start.p0(i64 4, ptr %11) #10
  %13 = load ptr, ptr %6, align 8, !tbaa !27
  %14 = call i64 @SSL_ctrl(ptr noundef %13, i32 noundef 90, i64 noundef 0, ptr noundef null)
  %15 = trunc i64 %14 to i32
  store i32 %15, ptr %9, align 4, !tbaa !3
  %16 = load i32, ptr %9, align 4, !tbaa !3
  %17 = icmp sle i32 %16, 0
  br i1 %17, label %18, label %19

18:                                               ; preds = %3
  store i32 1, ptr %4, align 4
  store i32 1, ptr %12, align 4
  br label %99

19:                                               ; preds = %3
  %20 = load i32, ptr %9, align 4, !tbaa !3
  %21 = sext i32 %20 to i64
  %22 = mul i64 %21, 4
  %23 = call ptr @app_malloc(i64 noundef %22, ptr noundef @.str.23)
  store ptr %23, ptr %10, align 8, !tbaa !34
  %24 = load ptr, ptr %6, align 8, !tbaa !27
  %25 = load ptr, ptr %10, align 8, !tbaa !34
  %26 = call i64 @SSL_ctrl(ptr noundef %24, i32 noundef 90, i64 noundef 0, ptr noundef %25)
  %27 = load ptr, ptr %5, align 8, !tbaa !14
  %28 = call i32 @BIO_puts(ptr noundef %27, ptr noundef @.str.24)
  store i32 0, ptr %8, align 4, !tbaa !3
  br label %29

29:                                               ; preds = %50, %19
  %30 = load i32, ptr %8, align 4, !tbaa !3
  %31 = load i32, ptr %9, align 4, !tbaa !3
  %32 = icmp slt i32 %30, %31
  br i1 %32, label %33, label %53

33:                                               ; preds = %29
  %34 = load i32, ptr %8, align 4, !tbaa !3
  %35 = icmp ne i32 %34, 0
  br i1 %35, label %36, label %39

36:                                               ; preds = %33
  %37 = load ptr, ptr %5, align 8, !tbaa !14
  %38 = call i32 @BIO_puts(ptr noundef %37, ptr noundef @.str.18)
  br label %39

39:                                               ; preds = %36, %33
  %40 = load ptr, ptr %10, align 8, !tbaa !34
  %41 = load i32, ptr %8, align 4, !tbaa !3
  %42 = sext i32 %41 to i64
  %43 = getelementptr inbounds i32, ptr %40, i64 %42
  %44 = load i32, ptr %43, align 4, !tbaa !3
  store i32 %44, ptr %11, align 4, !tbaa !3
  %45 = load ptr, ptr %5, align 8, !tbaa !14
  %46 = load ptr, ptr %6, align 8, !tbaa !27
  %47 = load i32, ptr %11, align 4, !tbaa !3
  %48 = call ptr @SSL_group_to_name(ptr noundef %46, i32 noundef %47)
  %49 = call i32 (ptr, ptr, ...) @BIO_printf(ptr noundef %45, ptr noundef @.str.25, ptr noundef %48)
  br label %50

50:                                               ; preds = %39
  %51 = load i32, ptr %8, align 4, !tbaa !3
  %52 = add nsw i32 %51, 1
  store i32 %52, ptr %8, align 4, !tbaa !3
  br label %29, !llvm.loop !36

53:                                               ; preds = %29
  %54 = load ptr, ptr %10, align 8, !tbaa !34
  call void @CRYPTO_free(ptr noundef %54, ptr noundef @.str.26, i32 noundef 397)
  %55 = load i32, ptr %7, align 4, !tbaa !3
  %56 = icmp ne i32 %55, 0
  br i1 %56, label %57, label %60

57:                                               ; preds = %53
  %58 = load ptr, ptr %5, align 8, !tbaa !14
  %59 = call i32 @BIO_puts(ptr noundef %58, ptr noundef @.str.1)
  store i32 1, ptr %4, align 4
  store i32 1, ptr %12, align 4
  br label %99

60:                                               ; preds = %53
  %61 = load ptr, ptr %5, align 8, !tbaa !14
  %62 = call i32 @BIO_puts(ptr noundef %61, ptr noundef @.str.27)
  %63 = load ptr, ptr %6, align 8, !tbaa !27
  %64 = call i64 @SSL_ctrl(ptr noundef %63, i32 noundef 93, i64 noundef -1, ptr noundef null)
  %65 = trunc i64 %64 to i32
  store i32 %65, ptr %9, align 4, !tbaa !3
  store i32 0, ptr %8, align 4, !tbaa !3
  br label %66

66:                                               ; preds = %87, %60
  %67 = load i32, ptr %8, align 4, !tbaa !3
  %68 = load i32, ptr %9, align 4, !tbaa !3
  %69 = icmp slt i32 %67, %68
  br i1 %69, label %70, label %90

70:                                               ; preds = %66
  %71 = load i32, ptr %8, align 4, !tbaa !3
  %72 = icmp ne i32 %71, 0
  br i1 %72, label %73, label %76

73:                                               ; preds = %70
  %74 = load ptr, ptr %5, align 8, !tbaa !14
  %75 = call i32 @BIO_puts(ptr noundef %74, ptr noundef @.str.18)
  br label %76

76:                                               ; preds = %73, %70
  %77 = load ptr, ptr %6, align 8, !tbaa !27
  %78 = load i32, ptr %8, align 4, !tbaa !3
  %79 = sext i32 %78 to i64
  %80 = call i64 @SSL_ctrl(ptr noundef %77, i32 noundef 93, i64 noundef %79, ptr noundef null)
  %81 = trunc i64 %80 to i32
  store i32 %81, ptr %11, align 4, !tbaa !3
  %82 = load ptr, ptr %5, align 8, !tbaa !14
  %83 = load ptr, ptr %6, align 8, !tbaa !27
  %84 = load i32, ptr %11, align 4, !tbaa !3
  %85 = call ptr @SSL_group_to_name(ptr noundef %83, i32 noundef %84)
  %86 = call i32 (ptr, ptr, ...) @BIO_printf(ptr noundef %82, ptr noundef @.str.25, ptr noundef %85)
  br label %87

87:                                               ; preds = %76
  %88 = load i32, ptr %8, align 4, !tbaa !3
  %89 = add nsw i32 %88, 1
  store i32 %89, ptr %8, align 4, !tbaa !3
  br label %66, !llvm.loop !37

90:                                               ; preds = %66
  %91 = load i32, ptr %9, align 4, !tbaa !3
  %92 = icmp eq i32 %91, 0
  br i1 %92, label %93, label %96

93:                                               ; preds = %90
  %94 = load ptr, ptr %5, align 8, !tbaa !14
  %95 = call i32 @BIO_puts(ptr noundef %94, ptr noundef @.str.28)
  br label %96

96:                                               ; preds = %93, %90
  %97 = load ptr, ptr %5, align 8, !tbaa !14
  %98 = call i32 @BIO_puts(ptr noundef %97, ptr noundef @.str.1)
  store i32 1, ptr %4, align 4
  store i32 1, ptr %12, align 4
  br label %99

99:                                               ; preds = %96, %57, %18
  call void @llvm.lifetime.end.p0(i64 4, ptr %11) #10
  call void @llvm.lifetime.end.p0(i64 8, ptr %10) #10
  call void @llvm.lifetime.end.p0(i64 4, ptr %9) #10
  call void @llvm.lifetime.end.p0(i64 4, ptr %8) #10
  %100 = load i32, ptr %4, align 4
  ret i32 %100
}