; Function Attrs: nounwind uwtable
define noundef i32 @ssl_print_groups(ptr noundef %0, ptr noundef %1, i32 noundef %2) local_unnamed_addr #0 {
  %4 = tail call i64 @SSL_ctrl(ptr noundef %1, i32 noundef 90, i64 noundef 0, ptr noundef null) #6
  %5 = trunc i64 %4 to i32
  %6 = icmp slt i32 %5, 1
  br i1 %6, label %38, label %7

7:                                                ; preds = %3
  %8 = shl i64 %4, 2
  %9 = and i64 %8, 8589934588
  %10 = tail call ptr @app_malloc(i64 noundef %9, ptr noundef nonnull @.str.23) #6
  %11 = tail call i64 @SSL_ctrl(ptr noundef %1, i32 noundef 90, i64 noundef 0, ptr noundef %10) #6
  %12 = tail call i32 @BIO_puts(ptr noundef %0, ptr noundef nonnull @.str.24) #6
  %wide.trip.count = and i64 %4, 2147483647
  br label %13

13:                                               ; preds = %7, %16
  %indvars.iv = phi i64 [ 0, %7 ], [ %indvars.iv.next, %16 ]
  %.not37 = icmp eq i64 %indvars.iv, 0
  br i1 %.not37, label %16, label %14

14:                                               ; preds = %13
  %15 = tail call i32 @BIO_puts(ptr noundef %0, ptr noundef nonnull @.str.18) #6
  br label %16

16:                                               ; preds = %14, %13
  %17 = getelementptr inbounds nuw i32, ptr %10, i64 %indvars.iv
  %18 = load i32, ptr %17, align 4, !tbaa !22
  %19 = tail call ptr @SSL_group_to_name(ptr noundef %1, i32 noundef %18) #6
  %20 = tail call i32 (ptr, ptr, ...) @BIO_printf(ptr noundef %0, ptr noundef nonnull @.str.25, ptr noundef %19) #6
  %indvars.iv.next = add nuw nsw i64 %indvars.iv, 1
  %exitcond.not = icmp eq i64 %indvars.iv.next, %wide.trip.count
  br i1 %exitcond.not, label %21, label %13, !llvm.loop !25

21:                                               ; preds = %16
  tail call void @CRYPTO_free(ptr noundef nonnull %10, ptr noundef nonnull @.str.26, i32 noundef 397) #6
  %.not = icmp eq i32 %2, 0
  br i1 %.not, label %22, label %.sink.split

22:                                               ; preds = %21
  %23 = tail call i32 @BIO_puts(ptr noundef %0, ptr noundef nonnull @.str.27) #6
  %24 = tail call i64 @SSL_ctrl(ptr noundef %1, i32 noundef 93, i64 noundef -1, ptr noundef null) #6
  %25 = trunc i64 %24 to i32
  %26 = icmp sgt i32 %25, 0
  br i1 %26, label %.lr.ph.preheader, label %._crit_edge

.lr.ph.preheader:                                 ; preds = %22
  %wide.trip.count44 = and i64 %24, 2147483647
  br label %.lr.ph

.lr.ph:                                           ; preds = %.lr.ph.preheader, %29
  %indvars.iv41 = phi i64 [ 0, %.lr.ph.preheader ], [ %indvars.iv.next42, %29 ]
  %.not36 = icmp eq i64 %indvars.iv41, 0
  br i1 %.not36, label %29, label %27

27:                                               ; preds = %.lr.ph
  %28 = tail call i32 @BIO_puts(ptr noundef %0, ptr noundef nonnull @.str.18) #6
  br label %29

29:                                               ; preds = %27, %.lr.ph
  %30 = tail call i64 @SSL_ctrl(ptr noundef %1, i32 noundef 93, i64 noundef %indvars.iv41, ptr noundef null) #6
  %31 = trunc i64 %30 to i32
  %32 = tail call ptr @SSL_group_to_name(ptr noundef %1, i32 noundef %31) #6
  %33 = tail call i32 (ptr, ptr, ...) @BIO_printf(ptr noundef %0, ptr noundef nonnull @.str.25, ptr noundef %32) #6
  %indvars.iv.next42 = add nuw nsw i64 %indvars.iv41, 1
  %exitcond45.not = icmp eq i64 %indvars.iv.next42, %wide.trip.count44
  br i1 %exitcond45.not, label %._crit_edge, label %.lr.ph, !llvm.loop !26

._crit_edge:                                      ; preds = %29, %22
  %34 = icmp eq i32 %25, 0
  br i1 %34, label %35, label %.sink.split

35:                                               ; preds = %._crit_edge
  %36 = tail call i32 @BIO_puts(ptr noundef %0, ptr noundef nonnull @.str.28) #6
  br label %.sink.split

.sink.split:                                      ; preds = %._crit_edge, %35, %21
  %37 = tail call i32 @BIO_puts(ptr noundef %0, ptr noundef nonnull @.str.1) #6
  br label %38

38:                                               ; preds = %.sink.split, %3
  ret i32 1
}